; Function Attrs: mustprogress uwtable
define hidden void @_ZN3euf9ac_plugin8diseq_ehEPNS_5enodeE(ptr noundef nonnull align 8 dereferenceable(432) %0, ptr noundef readonly captures(none) %1) unnamed_addr #3 align 2 {
  %3 = getelementptr inbounds nuw i8, ptr %1, i64 176
  %4 = load ptr, ptr %3, align 8, !tbaa !138
  %5 = getelementptr inbounds nuw i8, ptr %1, i64 184
  %6 = load ptr, ptr %5, align 8, !tbaa !138
  %7 = getelementptr inbounds nuw i8, ptr %0, i64 16
  %8 = load i32, ptr %7, align 8, !tbaa !10
  %9 = tail call noundef ptr @_ZN3euf5enode19get_closest_th_nodeEi(ptr noundef nonnull align 8 dereferenceable(176) %4, i32 noundef %8)
  %10 = load i32, ptr %7, align 8, !tbaa !10
  %11 = tail call noundef ptr @_ZN3euf5enode19get_closest_th_nodeEi(ptr noundef nonnull align 8 dereferenceable(176) %6, i32 noundef %10)
  tail call void @_ZN3euf9ac_plugin15register_sharedEPNS_5enodeE(ptr noundef nonnull align 8 dereferenceable(432) %0, ptr noundef %9)
  tail call void @_ZN3euf9ac_plugin15register_sharedEPNS_5enodeE(ptr noundef nonnull align 8 dereferenceable(432) %0, ptr noundef %11)
  ret void
}